; Function Attrs: mustprogress nofree norecurse nosync nounwind memory(read, argmem: readwrite, inaccessiblemem: none) uwtable
define void @ImfHalfToFloatArray(i32 noundef %0, ptr noundef readonly captures(none) %1, ptr noundef writeonly captures(none) %2) local_unnamed_addr #7 personality ptr @__gxx_personality_v0 {
  %4 = icmp sgt i32 %0, 0
  br i1 %4, label %.lr.ph, label %._crit_edge

.lr.ph:                                           ; preds = %3
  %5 = load ptr, ptr @imath_half_to_float_table, align 8, !tbaa !12
  %wide.trip.count = zext nneg i32 %0 to i64
  br label %6

._crit_edge:                                      ; preds = %6, %3
  ret void

6:                                                ; preds = %.lr.ph, %6
  %indvars.iv = phi i64 [ 0, %.lr.ph ], [ %indvars.iv.next, %6 ]
  %7 = getelementptr inbounds nuw i16, ptr %1, i64 %indvars.iv
  %8 = load i16, ptr %7, align 2, !tbaa !16
  %9 = zext i16 %8 to i64
  %10 = getelementptr inbounds nuw %union.imath_half_uif, ptr %5, i64 %9
  %11 = load float, ptr %10, align 4, !tbaa !15
  %12 = getelementptr inbounds nuw float, ptr %2, i64 %indvars.iv
  store float %11, ptr %12, align 4, !tbaa !8
  %indvars.iv.next = add nuw nsw i64 %indvars.iv, 1
  %exitcond.not = icmp eq i64 %indvars.iv.next, %wide.trip.count
  br i1 %exitcond.not, label %._crit_edge, label %6, !llvm.loop !18
}